Certificate:
    Data:
        Version: 3 (0x2)
        Serial Number: 4097 (0x1001)
        Signature Algorithm: sha256WithRSAEncryption
        Issuer: CN=Demo Root CA
        Validity
            Not Before: Jul  4 19:32:03 2025 GMT
            Not After : Jul  4 19:32:03 2026 GMT
        Subject: CN=localhost
        Subject Public Key Info:
            Public Key Algorithm: rsaEncryption
                Public-Key: (2048 bit)
                Modulus:
                    00:bb:78:58:9f:0c:91:93:3c:d3:40:be:d8:c1:41:
                    8d:14:0c:1f:90:64:87:58:78:53:fd:eb:48:e6:b3:
                    47:a1:56:13:00:0d:9f:93:e1:ac:3c:0b:0f:32:92:
                    e9:a9:98:ce:74:4e:02:a1:2f:04:c8:20:46:77:4b:
                    2a:c4:03:7c:27:be:5c:e2:fb:86:30:4e:ef:34:46:
                    4b:d3:08:4d:bc:c6:00:c1:b1:db:08:5f:c8:b9:5b:
                    db:cd:0e:02:c7:36:8d:e9:90:54:d8:4c:e5:ae:a1:
                    1c:ef:79:b7:f2:85:29:20:ae:9c:e7:63:63:62:75:
                    33:c0:c9:ff:7f:01:4b:f4:4d:f4:4d:8f:7f:2a:fd:
                    d8:c7:4c:4e:ac:5a:c1:af:5f:4f:8a:46:0d:28:49:
                    54:1d:ff:58:6b:00:6f:47:ce:dd:16:66:96:2a:f8:
                    1c:de:14:c5:7b:83:1a:41:b5:c2:35:1e:9e:f7:a3:
                    5d:90:6b:9b:5d:9c:5c:6e:9e:4b:26:33:2a:40:19:
                    f8:c0:7f:c3:ad:62:da:c5:23:78:cd:18:09:5b:7c:
                    47:10:d1:4b:c3:75:dc:96:11:c7:a6:b2:da:9f:3a:
                    64:e9:66:6c:59:96:0f:96:a1:91:07:cc:91:5c:e1:
                    2f:ff:ae:9d:a4:f9:44:50:fa:fe:4f:b7:44:e3:53:
                    bb:e7
                Exponent: 65537 (0x10001)
        X509v3 extensions:
            X509v3 Basic Constraints: 
                CA:FALSE
            X509v3 Key Usage: 
                Digital Signature, Key Encipherment
            X509v3 Extended Key Usage: 
                TLS Web Server Authentication
            Authority Information Access: 
                OCSP - URI:http://ocsp_responder:8080
            X509v3 Subject Alternative Name: 
                DNS:localhost
            X509v3 Subject Key Identifier: 
                EE:7A:53:6B:F8:ED:17:79:B3:00:46:B3:DB:33:9F:DC:89:EA:9C:44
            X509v3 Authority Key Identifier: 
                08:AA:1C:08:A4:D0:C2:E4:86:5F:8A:B2:2A:8B:ED:82:DC:1A:68:EA
    Signature Algorithm: sha256WithRSAEncryption
    Signature Value:
        e2:69:6d:7d:de:d0:84:3b:e3:00:67:e7:d6:ab:df:36:a0:50:
        9f:dd:10:6b:00:11:0c:ba:1e:7a:88:ca:67:a2:57:9f:9e:d6:
        fc:f3:e9:42:17:cc:07:7b:26:51:11:78:6b:17:5f:eb:55:6e:
        ea:e5:8e:f3:b7:f8:b7:d9:ed:15:fe:98:16:b0:cf:d8:4d:a3:
        71:f6:49:e4:18:68:b4:76:08:85:a1:ff:2a:7e:d5:6e:4f:37:
        7f:23:ee:48:1b:c1:99:d5:6c:d1:f8:06:b7:f6:8e:78:0a:78:
        51:fe:e6:7a:e2:60:a9:6d:59:a6:f6:e3:16:1b:68:19:de:97:
        4a:bc:08:02:b0:7f:95:c9:0d:17:f0:29:5d:e0:e2:e1:3c:98:
        0a:c0:ec:58:0c:48:06:14:7c:ff:49:bb:a3:95:35:94:44:56:
        b9:36:eb:9c:6d:ab:7a:15:b7:6c:1a:5e:50:31:35:9a:4f:35:
        ba:41:44:7b:89:65:cb:bd:aa:ce:04:60:e1:a0:ee:22:ba:c0:
        81:b6:1f:e3:f1:78:d5:e3:94:8b:ab:8b:49:84:e9:c1:1f:03:
        dd:57:02:a4:9e:a8:d7:ca:00:ae:4f:ac:a7:a2:ff:35:1d:59:
        98:8d:82:7f:8b:79:01:e0:10:36:59:03:24:6b:3b:8a:d4:f0:
        bd:db:2c:f7:51:70:72:24:f0:d6:4a:93:19:6d:b5:8d:03:f8:
        fb:b9:02:3a:35:e5:a6:1c:bb:d6:e1:fb:08:99:e0:88:3c:ee:
        53:a5:c0:9a:09:d5:3b:1e:9a:23:d8:3d:b2:5f:89:9e:f8:30:
        32:22:53:6c:04:57:f1:f0:44:2f:54:64:17:aa:67:b6:90:74:
        18:cb:4f:33:a6:26:36:a7:6c:1f:0a:71:b8:f9:80:50:4e:51:
        41:87:d7:b7:18:55:f1:61:ec:1b:44:56:41:be:c7:c0:85:92:
        65:a0:96:ac:27:11:06:c3:45:6d:db:6b:e3:c0:7a:d2:71:10:
        a6:8d:3b:13:79:69:7b:e2:23:90:fc:1f:f3:15:72:db:3b:67:
        92:31:7e:e3:48:30:c4:86:63:13:41:80:33:09:e7:fd:59:e4:
        e3:87:76:78:1a:8a:df:57:f8:19:da:db:f9:d8:4f:da:19:4a:
        7a:06:1f:9e:f5:f7:fe:ea:f9:fd:da:ea:8e:e4:8d:0b:7e:ca:
        1b:51:a1:52:8b:2c:fb:d7:6f:62:0b:b2:9b:c7:8c:7d:18:08:
        0f:5e:5a:0b:76:a5:23:b6:10:f1:3e:92:11:19:ee:d3:11:ce:
        12:2d:54:23:b1:30:3a:0e:2d:23:34:03:51:63:ef:89:e9:2e:
        b8:c1:2c:c9:dd:81:9a:97
-----BEGIN CERTIFICATE-----
MIIEZjCCAk6gAwIBAgICEAEwDQYJKoZIhvcNAQELBQAwFzEVMBMGA1UEAwwMRGVt
byBSb290IENBMB4XDTI1MDcwNDE5MzIwM1oXDTI2MDcwNDE5MzIwM1owFDESMBAG
A1UEAwwJbG9jYWxob3N0MIIBIjANBgkqhkiG9w0BAQEFAAOCAQ8AMIIBCgKCAQEA
u3hYnwyRkzzTQL7YwUGNFAwfkGSHWHhT/etI5rNHoVYTAA2fk+GsPAsPMpLpqZjO
dE4CoS8EyCBGd0sqxAN8J75c4vuGME7vNEZL0whNvMYAwbHbCF/IuVvbzQ4CxzaN
6ZBU2EzlrqEc73m38oUpIK6c52NjYnUzwMn/fwFL9E30TY9/Kv3Yx0xOrFrBr19P
ikYNKElUHf9YawBvR87dFmaWKvgc3hTFe4MaQbXCNR6e96NdkGubXZxcbp5LJjMq
QBn4wH/DrWLaxSN4zRgJW3xHENFLw3XclhHHprLanzpk6WZsWZYPlqGRB8yRXOEv
/66dpPlEUPr+T7dE41O75wIDAQABo4G+MIG7MAkGA1UdEwQCMAAwCwYDVR0PBAQD
AgWgMBMGA1UdJQQMMAoGCCsGAQUFBwMBMDYGCCsGAQUFBwEBBCowKDAmBggrBgEF
BQcwAYYaaHR0cDovL29jc3BfcmVzcG9uZGVyOjgwODAwFAYDVR0RBA0wC4IJbG9j
YWxob3N0MB0GA1UdDgQWBBTuelNr+O0XebMARrPbM5/cieqcRDAfBgNVHSMEGDAW
gBQIqhwIpNDC5IZfirIqi+2C3Bpo6jANBgkqhkiG9w0BAQsFAAOCAgEA4mltfd7Q
hDvjAGfn1qvfNqBQn90QawARDLoeeojKZ6JXn57W/PPpQhfMB3smURF4axdf61Vu
6uWO87f4t9ntFf6YFrDP2E2jcfZJ5BhotHYIhaH/Kn7Vbk83fyPuSBvBmdVs0fgG
t/aOeAp4Uf7meuJgqW1ZpvbjFhtoGd6XSrwIArB/lckNF/ApXeDi4TyYCsDsWAxI
BhR8/0m7o5U1lERWuTbrnG2rehW3bBpeUDE1mk81ukFEe4lly72qzgRg4aDuIrrA
gbYf4/F41eOUi6uLSYTpwR8D3VcCpJ6o18oArk+sp6L/NR1ZmI2Cf4t5AeAQNlkD
JGs7itTwvdss91FwciTw1kqTGW21jQP4+7kCOjXlphy71uH7CJngiDzuU6XAmgnV
Ox6aI9g9sl+JnvgwMiJTbARX8fBEL1RkF6pntpB0GMtPM6YmNqdsHwpxuPmAUE5R
QYfXtxhV8WHsG0RWQb7HwIWSZaCWrCcRBsNFbdtr48B60nEQpo07E3lpe+IjkPwf
8xVy2ztnkjF+40gwxIZjE0GAMwnn/Vnk44d2eBqK31f4Gdrb+dhP2hlKegYfnvX3
/ur5/drqjuSNC37KG1GhUoss+9dvYguym8eMfRgID15aC3alI7YQ8T6SERnu0xHO
Ei1UI7EwOg4tIzQDUWPviekuuMEsyd2Bmpc=
-----END CERTIFICATE-----
