Certificate:
    Data:
        Version: 3 (0x2)
        Serial Number: 4096 (0x1000)
        Signature Algorithm: sha256WithRSAEncryption
        Issuer: CN=Demo Root CA
        Validity
            Not Before: Jul  4 19:32:03 2025 GMT
            Not After : Jul  4 19:32:03 2026 GMT
        Subject: CN=Demo OCSP
        Subject Public Key Info:
            Public Key Algorithm: rsaEncryption
                Public-Key: (2048 bit)
                Modulus:
                    00:ac:08:73:89:de:c9:da:61:61:2e:f8:56:09:aa:
                    11:88:cb:d8:b4:f2:49:91:38:d3:0a:78:e0:80:00:
                    ef:da:db:ce:8a:a5:16:44:32:3f:4e:f2:b6:8d:de:
                    d5:22:4d:1a:ff:57:77:e6:ab:3a:9c:ad:80:e2:65:
                    d9:3c:f9:a2:f7:3c:ec:4b:dc:e0:63:1d:df:ad:e0:
                    f8:9f:aa:d2:a0:bf:e9:2e:7f:da:0c:48:80:c1:19:
                    6b:73:33:5b:87:c1:a3:fd:37:79:92:dd:f2:58:8b:
                    55:f2:23:36:dc:c9:a2:f8:6a:d1:42:ef:9f:b1:6c:
                    cb:19:5f:d7:76:f5:98:6c:b9:7f:d5:55:82:85:2b:
                    bf:69:98:f0:08:f9:bb:7f:34:96:e0:12:3e:f9:f2:
                    a4:11:77:c9:c6:bd:ad:14:72:ec:1f:95:97:2d:5c:
                    4f:bb:dc:6f:85:f3:8c:b7:4f:63:d5:a4:37:df:c2:
                    43:15:c6:f9:f7:af:da:68:0a:dc:ad:9b:88:4c:2e:
                    79:c7:9a:c4:8b:50:ad:5b:b3:61:b4:01:be:25:dc:
                    c2:67:44:bc:43:4e:5d:97:64:d3:29:44:ab:d2:35:
                    86:43:67:e8:b4:5c:06:28:9c:ec:72:aa:87:b5:10:
                    f5:cf:87:e4:5f:75:30:3f:95:53:ad:7c:14:22:7d:
                    c8:c3
                Exponent: 65537 (0x10001)
        X509v3 extensions:
            X509v3 Basic Constraints: 
                CA:FALSE
            X509v3 Key Usage: 
                Digital Signature
            X509v3 Extended Key Usage: 
                OCSP Signing
            X509v3 Subject Key Identifier: 
                FF:72:FA:E4:30:8F:D6:23:16:4C:7A:10:AE:7F:45:1A:9E:4D:C0:F8
            X509v3 Authority Key Identifier: 
                08:AA:1C:08:A4:D0:C2:E4:86:5F:8A:B2:2A:8B:ED:82:DC:1A:68:EA
    Signature Algorithm: sha256WithRSAEncryption
    Signature Value:
        b6:48:00:44:e3:22:a7:8d:45:68:b7:57:ed:8b:f7:21:c1:d7:
        17:dc:8f:cf:20:18:bb:07:c4:ac:84:71:8e:25:31:51:c1:7c:
        21:8e:35:e8:57:10:18:b9:45:32:5f:ff:29:a4:b5:bc:e4:0d:
        0d:47:ec:ac:a6:58:56:9c:db:70:10:c1:2f:fe:95:47:dd:7d:
        f5:93:a2:f7:76:5b:d9:bc:00:42:a7:22:81:b5:64:8b:fd:89:
        f6:4c:bd:3e:01:02:ce:ff:22:96:c6:49:38:7a:72:3f:4a:3a:
        26:a7:1d:cf:a9:39:ea:15:b9:6e:dd:4b:5b:71:6c:0c:2e:9c:
        0d:4a:95:4b:c4:1d:d6:b0:54:da:97:fb:c1:0a:47:ca:b5:f0:
        1d:78:a7:f7:41:32:1b:01:a0:6d:ff:33:15:82:13:ea:5f:b5:
        52:5a:56:08:13:7f:70:49:77:67:b3:4e:7c:21:b0:ff:61:3a:
        5d:c4:6b:af:5d:7b:8e:46:6d:27:98:f9:a6:67:28:eb:38:99:
        15:98:c9:43:24:c1:66:9e:27:07:6e:7f:a6:57:6b:bf:ff:84:
        c2:5f:37:c6:6d:04:a7:9e:33:b3:08:bf:57:e8:eb:f3:89:51:
        3a:9b:a7:47:cf:f4:2c:4e:7d:f6:d8:b9:34:01:2d:84:48:11:
        50:2f:e1:cc:41:f6:e0:a7:18:dd:df:bb:0d:3b:fe:63:51:47:
        9f:08:bd:b3:02:ce:71:eb:b0:56:c7:67:4f:53:f8:ac:17:6a:
        40:2b:46:8f:4f:fc:ac:ec:fa:73:cf:42:52:6e:01:9e:74:b0:
        ca:01:e2:00:fd:d0:34:61:25:bb:89:27:66:83:6a:8d:cb:8f:
        a1:1c:00:a6:67:53:8a:49:6d:e5:34:ed:32:e5:cf:1c:78:3e:
        47:c2:01:dd:66:9b:9f:ad:d7:af:9f:ed:04:a3:d7:dd:82:ad:
        84:96:b0:8d:57:46:4b:27:df:06:88:40:9a:0a:63:ce:4c:77:
        2a:00:5f:f3:96:2e:12:a8:fb:2b:08:b3:d7:ed:eb:ce:78:46:
        10:50:3b:97:ad:78:e4:39:1f:1a:87:bd:e1:e2:48:26:2f:74:
        91:ab:d9:ee:b9:64:36:d5:40:f7:e9:5c:8c:28:fa:f7:a4:b0:
        16:c4:08:14:78:42:da:ee:50:7b:ce:cd:26:10:b8:28:e5:66:
        bb:47:f5:b9:35:d9:77:86:24:83:03:ea:bb:b1:9e:77:73:4a:
        6c:6c:20:ef:b0:25:a0:bc:ea:63:cb:b8:cb:55:e8:ae:d1:5f:
        2f:85:59:01:c0:4e:ec:b0:ef:3d:31:dc:6d:89:aa:bf:3c:85:
        61:1f:f4:85:52:79:81:c8
-----BEGIN CERTIFICATE-----
MIIEFjCCAf6gAwIBAgICEAAwDQYJKoZIhvcNAQELBQAwFzEVMBMGA1UEAwwMRGVt
byBSb290IENBMB4XDTI1MDcwNDE5MzIwM1oXDTI2MDcwNDE5MzIwM1owFDESMBAG
A1UEAwwJRGVtbyBPQ1NQMIIBIjANBgkqhkiG9w0BAQEFAAOCAQ8AMIIBCgKCAQEA
rAhzid7J2mFhLvhWCaoRiMvYtPJJkTjTCnjggADv2tvOiqUWRDI/TvK2jd7VIk0a
/1d35qs6nK2A4mXZPPmi9zzsS9zgYx3freD4n6rSoL/pLn/aDEiAwRlrczNbh8Gj
/Td5kt3yWItV8iM23Mmi+GrRQu+fsWzLGV/XdvWYbLl/1VWChSu/aZjwCPm7fzSW
4BI++fKkEXfJxr2tFHLsH5WXLVxPu9xvhfOMt09j1aQ338JDFcb596/aaArcrZuI
TC55x5rEi1CtW7NhtAG+JdzCZ0S8Q05dl2TTKUSr0jWGQ2fotFwGKJzscqqHtRD1
z4fkX3UwP5VTrXwUIn3IwwIDAQABo28wbTAJBgNVHRMEAjAAMAsGA1UdDwQEAwIH
gDATBgNVHSUEDDAKBggrBgEFBQcDCTAdBgNVHQ4EFgQU/3L65DCP1iMWTHoQrn9F
Gp5NwPgwHwYDVR0jBBgwFoAUCKocCKTQwuSGX4qyKovtgtwaaOowDQYJKoZIhvcN
AQELBQADggIBALZIAETjIqeNRWi3V+2L9yHB1xfcj88gGLsHxKyEcY4lMVHBfCGO
NehXEBi5RTJf/ymktbzkDQ1H7KymWFac23AQwS/+lUfdffWTovd2W9m8AEKnIoG1
ZIv9ifZMvT4BAs7/IpbGSTh6cj9KOianHc+pOeoVuW7dS1txbAwunA1KlUvEHdaw
VNqX+8EKR8q18B14p/dBMhsBoG3/MxWCE+pftVJaVggTf3BJd2ezTnwhsP9hOl3E
a69de45GbSeY+aZnKOs4mRWYyUMkwWaeJwduf6ZXa7//hMJfN8ZtBKeeM7MIv1fo
6/OJUTqbp0fP9CxOffbYuTQBLYRIEVAv4cxB9uCnGN3fuw07/mNRR58IvbMCznHr
sFbHZ09T+KwXakArRo9P/Kzs+nPPQlJuAZ50sMoB4gD90DRhJbuJJ2aDao3Lj6Ec
AKZnU4pJbeU07TLlzxx4PkfCAd1mm5+t16+f7QSj192CrYSWsI1XRksn3waIQJoK
Y85MdyoAX/OWLhKo+ysIs9ft6854RhBQO5eteOQ5HxqHveHiSCYvdJGr2e65ZDbV
QPfpXIwo+veksBbECBR4QtruUHvOzSYQuCjlZrtH9bk12XeGJIMD6ruxnndzSmxs
IO+wJaC86mPLuMtV6K7RXy+FWQHATuyw7z0x3G2Jqr88hWEf9IVSeYHI
-----END CERTIFICATE-----
